target datalayout = "e-m:e-p270:32:32-p271:32:32-p272:64:64-i64:64-i128:128-f80:128-n8:16:32:64-S128"
target triple = "x86_64-pc-linux-gnu"

%struct.VuDev = type { i32, i32, ptr, ptr, %struct.VuDevInflightInfo, i32, %union.pthread_mutex_t, i32, i64, ptr, i64, i64, i8, i16, ptr, ptr, ptr, ptr, ptr, i32, i8 }
%struct.VuDevInflightInfo = type { i32, ptr, i64 }
%union.pthread_mutex_t = type { %struct.__pthread_mutex_s }
%struct.__pthread_mutex_s = type { i32, i32, i32, i32, i32, i16, i16, %struct.__pthread_internal_list }
%struct.__pthread_internal_list = type { ptr, ptr }
%struct.VuVirtq = type { %struct.VuRing, ptr, ptr, i16, i64, i16, i16, i16, i16, i8, i8, i32, ptr, i32, i32, i32, i32, i8, %struct.vhost_vring_addr }
%struct.VuRing = type { i32, ptr, ptr, ptr, i64, i32 }
%struct.vhost_vring_addr = type { i32, i32, i64, i64, i64, i64 }
%struct.vring_used = type { i16, i16, [0 x %struct.vring_used_elem] }
%struct.vring_used_elem = type { i32, i32 }
%struct.VuVirtqElement = type { i32, i32, i32, ptr, ptr }
%struct.VuVirtqInflight = type { i64, i16, i16, i16, i16, [0 x %struct.VuDescStateSplit] }
%struct.VuDescStateSplit = type { i8, [5 x i8], i16, i64 }

@.str.40 = private unnamed_addr constant [50 x i8] c"../qemu/subprojects/libvhost-user/libvhost-user.c\00", align 1
@.str.52 = private unnamed_addr constant [10 x i8] c"fbit < 64\00", align 1
@__PRETTY_FUNCTION__.has_feature = private unnamed_addr constant [42 x i8] c"_Bool has_feature(uint64_t, unsigned int)\00", align 1
@.str.98 = private unnamed_addr constant [26 x i8] c"remapping queue on access\00", align 1

; Function Attrs: inlinehint nounwind uwtable
define internal zeroext i16 @__uint16_identity(i16 noundef zeroext %0) #3 {
  %2 = alloca i16, align 2
  store i16 %0, ptr %2, align 2
  %3 = load i16, ptr %2, align 2
  ret i16 %3
}

; Function Attrs: inlinehint nounwind uwtable
define internal zeroext i1 @has_feature(i64 noundef %0, i32 noundef %1) #3 {
  %3 = alloca i64, align 8
  %4 = alloca i32, align 4
  store i64 %0, ptr %3, align 8
  store i32 %1, ptr %4, align 4
  %5 = load i32, ptr %4, align 4
  %6 = icmp ult i32 %5, 64
  br i1 %6, label %7, label %8

7:                                                ; preds = %2
  br label %9

8:                                                ; preds = %2
  call void @__assert_fail(ptr noundef @.str.52, ptr noundef @.str.40, i32 noundef 109, ptr noundef @__PRETTY_FUNCTION__.has_feature) #15
  unreachable

9:                                                ; preds = %7
  %10 = load i64, ptr %3, align 8
  %11 = load i32, ptr %4, align 4
  %12 = zext i32 %11 to i64
  %13 = shl i64 1, %12
  %14 = and i64 %10, %13
  %15 = icmp ne i64 %14, 0
  %16 = xor i1 %15, true
  %17 = xor i1 %16, true
  ret i1 %17
}

; Function Attrs: inlinehint nounwind uwtable
define internal void @vring_used_idx_set(ptr noundef %0, ptr noundef %1, i16 noundef zeroext %2) #3 {
  %4 = alloca ptr, align 8
  %5 = alloca ptr, align 8
  %6 = alloca i16, align 2
  store ptr %0, ptr %4, align 8
  store ptr %1, ptr %5, align 8
  store i16 %2, ptr %6, align 2
  %7 = load i16, ptr %6, align 2
  %8 = call zeroext i16 @__uint16_identity(i16 noundef zeroext %7)
  %9 = load ptr, ptr %5, align 8
  %10 = getelementptr inbounds nuw %struct.VuVirtq, ptr %9, i32 0, i32 0
  %11 = getelementptr inbounds nuw %struct.VuRing, ptr %10, i32 0, i32 3
  %12 = load ptr, ptr %11, align 8
  %13 = getelementptr inbounds nuw %struct.vring_used, ptr %12, i32 0, i32 1
  store i16 %8, ptr %13, align 2
  %14 = load ptr, ptr %4, align 8
  %15 = load ptr, ptr %5, align 8
  %16 = getelementptr inbounds nuw %struct.VuVirtq, ptr %15, i32 0, i32 0
  %17 = getelementptr inbounds nuw %struct.VuRing, ptr %16, i32 0, i32 4
  %18 = load i64, ptr %17, align 8
  %19 = add i64 %18, 2
  call void @vu_log_write(ptr noundef %14, i64 noundef %19, i64 noundef 2)
  %20 = load i16, ptr %6, align 2
  %21 = load ptr, ptr %5, align 8
  %22 = getelementptr inbounds nuw %struct.VuVirtq, ptr %21, i32 0, i32 7
  store i16 %20, ptr %22, align 4
  ret void
}

; Function Attrs: nounwind uwtable
define internal zeroext i1 @vu_is_vq_usable(ptr noundef %0, ptr noundef %1) #0 {
  %3 = alloca i1, align 1
  %4 = alloca ptr, align 8
  %5 = alloca ptr, align 8
  store ptr %0, ptr %4, align 8
  store ptr %1, ptr %5, align 8
  %6 = load ptr, ptr %4, align 8
  %7 = getelementptr inbounds nuw %struct.VuDev, ptr %6, i32 0, i32 12
  %8 = load i8, ptr %7, align 8, !range !5, !noundef !6
  %9 = trunc i8 %8 to i1
  %10 = xor i1 %9, true
  %11 = xor i1 %10, true
  %12 = zext i1 %11 to i32
  %13 = sext i32 %12 to i64
  %14 = call i64 @llvm.expect.i64(i64 %13, i64 0)
  %15 = icmp ne i64 %14, 0
  br i1 %15, label %16, label %17

16:                                               ; preds = %2
  store i1 false, ptr %3, align 1
  br label %56

17:                                               ; preds = %2
  %18 = load ptr, ptr %5, align 8
  %19 = getelementptr inbounds nuw %struct.VuVirtq, ptr %18, i32 0, i32 0
  %20 = getelementptr inbounds nuw %struct.VuRing, ptr %19, i32 0, i32 2
  %21 = load ptr, ptr %20, align 8
  %22 = icmp ne ptr %21, null
  %23 = xor i1 %22, true
  %24 = xor i1 %23, true
  %25 = zext i1 %24 to i32
  %26 = sext i32 %25 to i64
  %27 = call i64 @llvm.expect.i64(i64 %26, i64 1)
  %28 = icmp ne i64 %27, 0
  br i1 %28, label %29, label %30

29:                                               ; preds = %17
  store i1 true, ptr %3, align 1
  br label %56

30:                                               ; preds = %17
  %31 = load ptr, ptr %5, align 8
  %32 = getelementptr inbounds nuw %struct.VuVirtq, ptr %31, i32 0, i32 18
  %33 = getelementptr inbounds nuw %struct.vhost_vring_addr, ptr %32, i32 0, i32 2
  %34 = load i64, ptr %33, align 8
  %35 = icmp ne i64 %34, 0
  br i1 %35, label %36, label %48

36:                                               ; preds = %30
  %37 = load ptr, ptr %5, align 8
  %38 = getelementptr inbounds nuw %struct.VuVirtq, ptr %37, i32 0, i32 18
  %39 = getelementptr inbounds nuw %struct.vhost_vring_addr, ptr %38, i32 0, i32 3
  %40 = load i64, ptr %39, align 8
  %41 = icmp ne i64 %40, 0
  br i1 %41, label %42, label %48

42:                                               ; preds = %36
  %43 = load ptr, ptr %5, align 8
  %44 = getelementptr inbounds nuw %struct.VuVirtq, ptr %43, i32 0, i32 18
  %45 = getelementptr inbounds nuw %struct.vhost_vring_addr, ptr %44, i32 0, i32 4
  %46 = load i64, ptr %45, align 8
  %47 = icmp ne i64 %46, 0
  br i1 %47, label %49, label %48

48:                                               ; preds = %42, %36, %30
  store i1 false, ptr %3, align 1
  br label %56

49:                                               ; preds = %42
  %50 = load ptr, ptr %4, align 8
  %51 = load ptr, ptr %5, align 8
  %52 = call zeroext i1 @map_ring(ptr noundef %50, ptr noundef %51)
  br i1 %52, label %53, label %55

53:                                               ; preds = %49
  %54 = load ptr, ptr %4, align 8
  call void (ptr, ptr, ...) @vu_panic(ptr noundef %54, ptr noundef @.str.98)
  store i1 false, ptr %3, align 1
  br label %56

55:                                               ; preds = %49
  store i1 true, ptr %3, align 1
  br label %56

56:                                               ; preds = %55, %53, %48, %29, %16
  %57 = load i1, ptr %3, align 1
  ret i1 %57
}

; Function Attrs: inlinehint nounwind uwtable
define internal zeroext i1 @vu_has_protocol_feature(ptr noundef %0, i32 noundef %1) #3 {
  %3 = alloca ptr, align 8
  %4 = alloca i32, align 4
  store ptr %0, ptr %3, align 8
  store i32 %1, ptr %4, align 4
  %5 = load ptr, ptr %3, align 8
  %6 = getelementptr inbounds nuw %struct.VuDev, ptr %5, i32 0, i32 11
  %7 = load i64, ptr %6, align 8
  %8 = load i32, ptr %4, align 4
  %9 = call zeroext i1 @has_feature(i64 noundef %7, i32 noundef %8)
  ret i1 %9
}

; Function Attrs: nounwind uwtable
define internal i32 @vu_queue_inflight_post_put(ptr noundef %0, ptr noundef %1, i32 noundef %2) #0 {
  %4 = alloca i32, align 4
  %5 = alloca ptr, align 8
  %6 = alloca ptr, align 8
  %7 = alloca i32, align 4
  store ptr %0, ptr %5, align 8
  store ptr %1, ptr %6, align 8
  store i32 %2, ptr %7, align 4
  %8 = load ptr, ptr %5, align 8
  %9 = call zeroext i1 @vu_has_protocol_feature(ptr noundef %8, i32 noundef 12)
  br i1 %9, label %11, label %10

10:                                               ; preds = %3
  store i32 0, ptr %4, align 4
  br label %40

11:                                               ; preds = %3
  %12 = load ptr, ptr %6, align 8
  %13 = getelementptr inbounds nuw %struct.VuVirtq, ptr %12, i32 0, i32 1
  %14 = load ptr, ptr %13, align 8
  %15 = icmp ne ptr %14, null
  %16 = xor i1 %15, true
  %17 = xor i1 %16, true
  %18 = xor i1 %17, true
  %19 = zext i1 %18 to i32
  %20 = sext i32 %19 to i64
  %21 = call i64 @llvm.expect.i64(i64 %20, i64 0)
  %22 = icmp ne i64 %21, 0
  br i1 %22, label %23, label %24

23:                                               ; preds = %11
  store i32 -1, ptr %4, align 4
  br label %40

24:                                               ; preds = %11
  call void asm sideeffect "", "~{memory},~{dirflag},~{fpsr},~{flags}"() #13, !srcloc !12
  %25 = load ptr, ptr %6, align 8
  %26 = getelementptr inbounds nuw %struct.VuVirtq, ptr %25, i32 0, i32 1
  %27 = load ptr, ptr %26, align 8
  %28 = getelementptr inbounds nuw %struct.VuVirtqInflight, ptr %27, i32 0, i32 5
  %29 = load i32, ptr %7, align 4
  %30 = sext i32 %29 to i64
  %31 = getelementptr inbounds [0 x %struct.VuDescStateSplit], ptr %28, i64 0, i64 %30
  %32 = getelementptr inbounds nuw %struct.VuDescStateSplit, ptr %31, i32 0, i32 0
  store i8 0, ptr %32, align 8
  call void asm sideeffect "", "~{memory},~{dirflag},~{fpsr},~{flags}"() #13, !srcloc !13
  %33 = load ptr, ptr %6, align 8
  %34 = getelementptr inbounds nuw %struct.VuVirtq, ptr %33, i32 0, i32 7
  %35 = load i16, ptr %34, align 4
  %36 = load ptr, ptr %6, align 8
  %37 = getelementptr inbounds nuw %struct.VuVirtq, ptr %36, i32 0, i32 1
  %38 = load ptr, ptr %37, align 8
  %39 = getelementptr inbounds nuw %struct.VuVirtqInflight, ptr %38, i32 0, i32 4
  store i16 %35, ptr %39, align 2
  store i32 0, ptr %4, align 4
  br label %40

40:                                               ; preds = %24, %23, %10
  %41 = load i32, ptr %4, align 4
  ret i32 %41
}

; Function Attrs: nounwind uwtable
define dso_local void @vu_queue_flush(ptr noundef %0, ptr noundef %1, i32 noundef %2) #0 {
  %4 = alloca ptr, align 8
  %5 = alloca ptr, align 8
  %6 = alloca i32, align 4
  %7 = alloca i16, align 2
  %8 = alloca i16, align 2
  %9 = alloca i32, align 4
  store ptr %0, ptr %4, align 8
  store ptr %1, ptr %5, align 8
  store i32 %2, ptr %6, align 4
  call void @llvm.lifetime.start.p0(i64 2, ptr %7) #13
  store i16 0, ptr %7, align 2, !annotation !4
  call void @llvm.lifetime.start.p0(i64 2, ptr %8) #13
  store i16 0, ptr %8, align 2, !annotation !4
  %10 = load ptr, ptr %4, align 8
  %11 = load ptr, ptr %5, align 8
  %12 = call zeroext i1 @vu_is_vq_usable(ptr noundef %10, ptr noundef %11)
  br i1 %12, label %14, label %13

13:                                               ; preds = %3
  store i32 1, ptr %9, align 4
  br label %58

14:                                               ; preds = %3
  call void asm sideeffect "", "~{memory},~{dirflag},~{fpsr},~{flags}"() #13, !srcloc !11
  fence release
  %15 = load ptr, ptr %5, align 8
  %16 = getelementptr inbounds nuw %struct.VuVirtq, ptr %15, i32 0, i32 7
  %17 = load i16, ptr %16, align 4
  store i16 %17, ptr %7, align 2
  %18 = load i16, ptr %7, align 2
  %19 = zext i16 %18 to i32
  %20 = load i32, ptr %6, align 4
  %21 = add i32 %19, %20
  %22 = trunc i32 %21 to i16
  store i16 %22, ptr %8, align 2
  %23 = load ptr, ptr %4, align 8
  %24 = load ptr, ptr %5, align 8
  %25 = load i16, ptr %8, align 2
  call void @vring_used_idx_set(ptr noundef %23, ptr noundef %24, i16 noundef zeroext %25)
  %26 = load i32, ptr %6, align 4
  %27 = load ptr, ptr %5, align 8
  %28 = getelementptr inbounds nuw %struct.VuVirtq, ptr %27, i32 0, i32 11
  %29 = load i32, ptr %28, align 4
  %30 = sub i32 %29, %26
  store i32 %30, ptr %28, align 4
  %31 = load i16, ptr %8, align 2
  %32 = zext i16 %31 to i32
  %33 = load ptr, ptr %5, align 8
  %34 = getelementptr inbounds nuw %struct.VuVirtq, ptr %33, i32 0, i32 8
  %35 = load i16, ptr %34, align 2
  %36 = zext i16 %35 to i32
  %37 = sub i32 %32, %36
  %38 = trunc i32 %37 to i16
  %39 = sext i16 %38 to i32
  %40 = load i16, ptr %8, align 2
  %41 = zext i16 %40 to i32
  %42 = load i16, ptr %7, align 2
  %43 = zext i16 %42 to i32
  %44 = sub i32 %41, %43
  %45 = trunc i32 %44 to i16
  %46 = zext i16 %45 to i32
  %47 = icmp slt i32 %39, %46
  %48 = xor i1 %47, true
  %49 = xor i1 %48, true
  %50 = zext i1 %49 to i32
  %51 = sext i32 %50 to i64
  %52 = call i64 @llvm.expect.i64(i64 %51, i64 0)
  %53 = icmp ne i64 %52, 0
  br i1 %53, label %54, label %57

54:                                               ; preds = %14
  %55 = load ptr, ptr %5, align 8
  %56 = getelementptr inbounds nuw %struct.VuVirtq, ptr %55, i32 0, i32 9
  store i8 0, ptr %56, align 8
  br label %57

57:                                               ; preds = %54, %14
  store i32 0, ptr %9, align 4
  br label %58

58:                                               ; preds = %57, %13
  call void @llvm.lifetime.end.p0(i64 2, ptr %8) #13
  call void @llvm.lifetime.end.p0(i64 2, ptr %7) #13
  %59 = load i32, ptr %9, align 4
  switch i32 %59, label %61 [
    i32 0, label %60
    i32 1, label %60
  ]

60:                                               ; preds = %58, %58
  ret void

61:                                               ; preds = %58
  unreachable
}

; Function Attrs: nounwind uwtable
define internal i32 @vu_queue_inflight_pre_put(ptr noundef %0, ptr noundef %1, i32 noundef %2) #0 {
  %4 = alloca i32, align 4
  %5 = alloca ptr, align 8
  %6 = alloca ptr, align 8
  %7 = alloca i32, align 4
  store ptr %0, ptr %5, align 8
  store ptr %1, ptr %6, align 8
  store i32 %2, ptr %7, align 4
  %8 = load ptr, ptr %5, align 8
  %9 = call zeroext i1 @vu_has_protocol_feature(ptr noundef %8, i32 noundef 12)
  br i1 %9, label %11, label %10

10:                                               ; preds = %3
  store i32 0, ptr %4, align 4
  br label %31

11:                                               ; preds = %3
  %12 = load ptr, ptr %6, align 8
  %13 = getelementptr inbounds nuw %struct.VuVirtq, ptr %12, i32 0, i32 1
  %14 = load ptr, ptr %13, align 8
  %15 = icmp ne ptr %14, null
  %16 = xor i1 %15, true
  %17 = xor i1 %16, true
  %18 = xor i1 %17, true
  %19 = zext i1 %18 to i32
  %20 = sext i32 %19 to i64
  %21 = call i64 @llvm.expect.i64(i64 %20, i64 0)
  %22 = icmp ne i64 %21, 0
  br i1 %22, label %23, label %24

23:                                               ; preds = %11
  store i32 -1, ptr %4, align 4
  br label %31

24:                                               ; preds = %11
  %25 = load i32, ptr %7, align 4
  %26 = trunc i32 %25 to i16
  %27 = load ptr, ptr %6, align 8
  %28 = getelementptr inbounds nuw %struct.VuVirtq, ptr %27, i32 0, i32 1
  %29 = load ptr, ptr %28, align 8
  %30 = getelementptr inbounds nuw %struct.VuVirtqInflight, ptr %29, i32 0, i32 3
  store i16 %26, ptr %30, align 4
  store i32 0, ptr %4, align 4
  br label %31

31:                                               ; preds = %24, %23, %10
  %32 = load i32, ptr %4, align 4
  ret i32 %32
}

; Function Attrs: nounwind uwtable
define dso_local void @vu_queue_push(ptr noundef %0, ptr noundef %1, ptr noundef %2, i32 noundef %3) #0 {
  %5 = alloca ptr, align 8
  %6 = alloca ptr, align 8
  %7 = alloca ptr, align 8
  %8 = alloca i32, align 4
  store ptr %0, ptr %5, align 8
  store ptr %1, ptr %6, align 8
  store ptr %2, ptr %7, align 8
  store i32 %3, ptr %8, align 4
  %9 = load ptr, ptr %5, align 8
  %10 = load ptr, ptr %6, align 8
  %11 = load ptr, ptr %7, align 8
  %12 = load i32, ptr %8, align 4
  call void @vu_queue_fill(ptr noundef %9, ptr noundef %10, ptr noundef %11, i32 noundef %12, i32 noundef 0)
  %13 = load ptr, ptr %5, align 8
  %14 = load ptr, ptr %6, align 8
  %15 = load ptr, ptr %7, align 8
  %16 = getelementptr inbounds nuw %struct.VuVirtqElement, ptr %15, i32 0, i32 0
  %17 = load i32, ptr %16, align 8
  %18 = call i32 @vu_queue_inflight_pre_put(ptr noundef %13, ptr noundef %14, i32 noundef %17)
  %19 = load ptr, ptr %5, align 8
  %20 = load ptr, ptr %6, align 8
  call void @vu_queue_flush(ptr noundef %19, ptr noundef %20, i32 noundef 1)
  %21 = load ptr, ptr %5, align 8
  %22 = load ptr, ptr %6, align 8
  %23 = load ptr, ptr %7, align 8
  %24 = getelementptr inbounds nuw %struct.VuVirtqElement, ptr %23, i32 0, i32 0
  %25 = load i32, ptr %24, align 8
  %26 = call i32 @vu_queue_inflight_post_put(ptr noundef %21, ptr noundef %22, i32 noundef %25)
  ret void
}