; Function Attrs: nounwind uwtable
define dso_local void @vu_queue_push(ptr noundef %0, ptr noundef captures(none) %1, ptr noundef readonly captures(none) %2, i32 noundef %3) local_unnamed_addr #3 {
  tail call void @vu_queue_fill(ptr noundef %0, ptr noundef %1, ptr noundef %2, i32 noundef %3, i32 noundef 0)
  %5 = load i32, ptr %2, align 8
  %6 = getelementptr i8, ptr %0, i64 128
  %.val = load i64, ptr %6, align 8
  %7 = and i64 %.val, 4096
  %.not1.i = icmp eq i64 %7, 0
  br i1 %.not1.i, label %vu_queue_inflight_pre_put.exit, label %8

8:                                                ; preds = %4
  %9 = getelementptr inbounds nuw i8, ptr %1, i64 48
  %10 = load ptr, ptr %9, align 8
  %.not.i = icmp eq ptr %10, null
  br i1 %.not.i, label %vu_queue_inflight_pre_put.exit, label %11, !prof !7

11:                                               ; preds = %8
  %12 = trunc i32 %5 to i16
  %13 = getelementptr inbounds nuw i8, ptr %10, i64 12
  store i16 %12, ptr %13, align 4
  br label %vu_queue_inflight_pre_put.exit

vu_queue_inflight_pre_put.exit:                   ; preds = %4, %8, %11
  %14 = getelementptr inbounds nuw i8, ptr %0, i64 136
  %15 = load i8, ptr %14, align 8, !range !5, !noundef !6
  %16 = trunc nuw i8 %15 to i1
  br i1 %16, label %vu_queue_flush.exit, label %17, !prof !7

17:                                               ; preds = %vu_queue_inflight_pre_put.exit
  %18 = getelementptr inbounds nuw i8, ptr %1, i64 16
  %19 = load ptr, ptr %18, align 8
  %.not.i.i = icmp eq ptr %19, null
  br i1 %.not.i.i, label %20, label %vu_is_vq_usable.exit.i, !prof !7

20:                                               ; preds = %17
  %21 = getelementptr inbounds nuw i8, ptr %1, i64 136
  %22 = load i64, ptr %21, align 8
  %.not9.i.i = icmp eq i64 %22, 0
  br i1 %.not9.i.i, label %vu_queue_flush.exit, label %23

23:                                               ; preds = %20
  %24 = getelementptr inbounds nuw i8, ptr %1, i64 144
  %25 = load i64, ptr %24, align 8
  %.not10.i.i = icmp eq i64 %25, 0
  br i1 %.not10.i.i, label %vu_queue_flush.exit, label %26

26:                                               ; preds = %23
  %27 = getelementptr inbounds nuw i8, ptr %1, i64 152
  %28 = load i64, ptr %27, align 8
  %.not11.i.i = icmp eq i64 %28, 0
  br i1 %.not11.i.i, label %vu_queue_flush.exit, label %29

29:                                               ; preds = %26
  %30 = tail call fastcc zeroext i1 @map_ring(ptr noundef nonnull %0, ptr noundef nonnull %1)
  br i1 %30, label %31, label %vu_is_vq_usable.exit.i

31:                                               ; preds = %29
  tail call void (ptr, ptr, ...) @vu_panic(ptr noundef nonnull %0, ptr noundef nonnull @.str.98)
  br label %vu_queue_flush.exit

vu_is_vq_usable.exit.i:                           ; preds = %29, %17
  tail call void asm sideeffect "", "~{memory},~{dirflag},~{fpsr},~{flags}"() #21, !srcloc !16
  fence release
  %32 = getelementptr inbounds nuw i8, ptr %1, i64 84
  %33 = load i16, ptr %32, align 4
  %34 = add i16 %33, 1
  %35 = getelementptr inbounds nuw i8, ptr %1, i64 24
  %36 = load ptr, ptr %35, align 8
  %37 = getelementptr inbounds nuw i8, ptr %36, i64 2
  store i16 %34, ptr %37, align 2
  %38 = getelementptr inbounds nuw i8, ptr %1, i64 32
  %39 = load i64, ptr %38, align 8
  %40 = add i64 %39, 2
  tail call fastcc void @vu_log_write(ptr noundef nonnull %0, i64 noundef %40, i64 noundef 2)
  store i16 %34, ptr %32, align 4
  %41 = getelementptr inbounds nuw i8, ptr %1, i64 92
  %42 = load i32, ptr %41, align 4
  %43 = add i32 %42, -1
  store i32 %43, ptr %41, align 4
  %44 = getelementptr inbounds nuw i8, ptr %1, i64 86
  %45 = load i16, ptr %44, align 2
  %46 = sub i16 %34, %45
  %47 = icmp slt i16 %46, 1
  br i1 %47, label %48, label %vu_queue_flush.exit, !prof !7

48:                                               ; preds = %vu_is_vq_usable.exit.i
  %49 = getelementptr inbounds nuw i8, ptr %1, i64 88
  store i8 0, ptr %49, align 8
  br label %vu_queue_flush.exit

vu_queue_flush.exit:                              ; preds = %vu_queue_inflight_pre_put.exit, %20, %23, %26, %31, %vu_is_vq_usable.exit.i, %48
  %50 = load i32, ptr %2, align 8
  %.val11 = load i64, ptr %6, align 8
  %51 = and i64 %.val11, 4096
  %.not1.i12 = icmp eq i64 %51, 0
  br i1 %.not1.i12, label %vu_queue_inflight_post_put.exit, label %52

52:                                               ; preds = %vu_queue_flush.exit
  %53 = getelementptr inbounds nuw i8, ptr %1, i64 48
  %54 = load ptr, ptr %53, align 8
  %.not.i13 = icmp eq ptr %54, null
  br i1 %.not.i13, label %vu_queue_inflight_post_put.exit, label %55, !prof !7

55:                                               ; preds = %52
  tail call void asm sideeffect "", "~{memory},~{dirflag},~{fpsr},~{flags}"() #21, !srcloc !17
  %56 = load ptr, ptr %53, align 8
  %57 = getelementptr inbounds nuw i8, ptr %56, i64 16
  %58 = sext i32 %50 to i64
  %59 = getelementptr inbounds [0 x %struct.VuDescStateSplit], ptr %57, i64 0, i64 %58
  store i8 0, ptr %59, align 8
  tail call void asm sideeffect "", "~{memory},~{dirflag},~{fpsr},~{flags}"() #21, !srcloc !18
  %60 = getelementptr inbounds nuw i8, ptr %1, i64 84
  %61 = load i16, ptr %60, align 4
  %62 = load ptr, ptr %53, align 8
  %63 = getelementptr inbounds nuw i8, ptr %62, i64 14
  store i16 %61, ptr %63, align 2
  br label %vu_queue_inflight_post_put.exit

vu_queue_inflight_post_put.exit:                  ; preds = %vu_queue_flush.exit, %52, %55
  ret void
}